target datalayout = "e-m:e-p270:32:32-p271:32:32-p272:64:64-i64:64-i128:128-f80:128-n8:16:32:64-S128"
target triple = "x86_64-pc-linux-gnu"

%struct.PJconsts = type { ptr, ptr, ptr, ptr, ptr, ptr, ptr, ptr, ptr, ptr, ptr, ptr, i32, ptr, ptr, ptr, ptr, ptr, ptr, ptr, ptr, double, double, double, double, double, double, double, double, double, double, double, double, double, double, double, double, double, double, double, double, double, double, i32, i32, i32, i32, i32, i32, i32, i32, i32, i32, i32, ptr, ptr, ptr, ptr, ptr, ptr, double, double, double, double, double, double, double, double, double, double, double, i32, [7 x double], i32, ptr, ptr, double, double, i32, [4 x i8], %"class.std::shared_ptr", i8, double, i8, %"class.std::__cxx11::basic_string", %"class.std::__cxx11::basic_string", %"class.std::__cxx11::basic_string", i8, %"class.std::vector", i32, %"class.std::vector.3", i32, i8, i8, i8, ptr }
%"class.std::shared_ptr" = type { %"class.std::__shared_ptr" }
%"class.std::__shared_ptr" = type { ptr, %"class.std::__shared_count" }
%"class.std::__shared_count" = type { ptr }
%"class.std::__cxx11::basic_string" = type { %"struct.std::__cxx11::basic_string<char>::_Alloc_hider", i64, %union.anon }
%"struct.std::__cxx11::basic_string<char>::_Alloc_hider" = type { ptr }
%union.anon = type { i64, [8 x i8] }
%"class.std::vector" = type { %"struct.std::_Vector_base" }
%"struct.std::_Vector_base" = type { %"struct.std::_Vector_base<osgeo::proj::operation::GridDescription, std::allocator<osgeo::proj::operation::GridDescription>>::_Vector_impl" }
%"struct.std::_Vector_base<osgeo::proj::operation::GridDescription, std::allocator<osgeo::proj::operation::GridDescription>>::_Vector_impl" = type { %"struct.std::_Vector_base<osgeo::proj::operation::GridDescription, std::allocator<osgeo::proj::operation::GridDescription>>::_Vector_impl_data" }
%"struct.std::_Vector_base<osgeo::proj::operation::GridDescription, std::allocator<osgeo::proj::operation::GridDescription>>::_Vector_impl_data" = type { ptr, ptr, ptr }
%"class.std::vector.3" = type { %"struct.std::_Vector_base.4" }
%"struct.std::_Vector_base.4" = type { %"struct.std::_Vector_base<PJCoordOperation, std::allocator<PJCoordOperation>>::_Vector_impl" }
%"struct.std::_Vector_base<PJCoordOperation, std::allocator<PJCoordOperation>>::_Vector_impl" = type { %"struct.std::_Vector_base<PJCoordOperation, std::allocator<PJCoordOperation>>::_Vector_impl_data" }
%"struct.std::_Vector_base<PJCoordOperation, std::allocator<PJCoordOperation>>::_Vector_impl_data" = type { ptr, ptr, ptr }
%"struct.(anonymous namespace)::pj_gn_sinu_data" = type { ptr, double, double, double, double }
%union.PROJVALUE = type { double }

@.str.4 = private unnamed_addr constant [3 x i8] c"tn\00", align 1
@.str.5 = private unnamed_addr constant [21 x i8] c"Missing parameter n.\00", align 1
@.str.6 = private unnamed_addr constant [3 x i8] c"tm\00", align 1
@.str.7 = private unnamed_addr constant [21 x i8] c"Missing parameter m.\00", align 1
@.str.8 = private unnamed_addr constant [3 x i8] c"dn\00", align 1
@.str.9 = private unnamed_addr constant [3 x i8] c"dm\00", align 1
@.str.10 = private unnamed_addr constant [39 x i8] c"Invalid value for n: it should be > 0.\00", align 1
@.str.11 = private unnamed_addr constant [40 x i8] c"Invalid value for m: it should be >= 0.\00", align 1

; Function Attrs: mustprogress nounwind uwtable
define internal void @_ZL16pj_gn_sinu_setupP8PJconsts(ptr noundef %0) #4 {
  %2 = alloca ptr, align 8
  %3 = alloca ptr, align 8
  store ptr %0, ptr %2, align 8, !tbaa !3
  call void @llvm.lifetime.start.p0(i64 8, ptr %3) #8
  %4 = load ptr, ptr %2, align 8, !tbaa !3
  %5 = getelementptr inbounds nuw %struct.PJconsts, ptr %4, i32 0, i32 11
  %6 = load ptr, ptr %5, align 8, !tbaa !43
  store ptr %6, ptr %3, align 8, !tbaa !41
  %7 = load ptr, ptr %2, align 8, !tbaa !3
  %8 = getelementptr inbounds nuw %struct.PJconsts, ptr %7, i32 0, i32 27
  store double 0.000000e+00, ptr %8, align 8, !tbaa !49
  %9 = load ptr, ptr %2, align 8, !tbaa !3
  %10 = getelementptr inbounds nuw %struct.PJconsts, ptr %9, i32 0, i32 14
  store ptr @_ZL17gn_sinu_s_inverse5PJ_XYP8PJconsts, ptr %10, align 8, !tbaa !50
  %11 = load ptr, ptr %2, align 8, !tbaa !3
  %12 = getelementptr inbounds nuw %struct.PJconsts, ptr %11, i32 0, i32 13
  store ptr @_ZL17gn_sinu_s_forward5PJ_LPP8PJconsts, ptr %12, align 8, !tbaa !51
  %13 = load ptr, ptr %3, align 8, !tbaa !41
  %14 = getelementptr inbounds nuw %"struct.(anonymous namespace)::pj_gn_sinu_data", ptr %13, i32 0, i32 1
  %15 = load double, ptr %14, align 8, !tbaa !53
  %16 = fadd double %15, 1.000000e+00
  %17 = load ptr, ptr %3, align 8, !tbaa !41
  %18 = getelementptr inbounds nuw %"struct.(anonymous namespace)::pj_gn_sinu_data", ptr %17, i32 0, i32 2
  %19 = load double, ptr %18, align 8, !tbaa !52
  %20 = fdiv double %16, %19
  %21 = call double @sqrt(double noundef %20) #8, !tbaa !54
  %22 = load ptr, ptr %3, align 8, !tbaa !41
  %23 = getelementptr inbounds nuw %"struct.(anonymous namespace)::pj_gn_sinu_data", ptr %22, i32 0, i32 4
  store double %21, ptr %23, align 8, !tbaa !62
  %24 = load ptr, ptr %3, align 8, !tbaa !41
  %25 = getelementptr inbounds nuw %"struct.(anonymous namespace)::pj_gn_sinu_data", ptr %24, i32 0, i32 4
  %26 = load double, ptr %25, align 8, !tbaa !62
  %27 = load ptr, ptr %3, align 8, !tbaa !41
  %28 = getelementptr inbounds nuw %"struct.(anonymous namespace)::pj_gn_sinu_data", ptr %27, i32 0, i32 1
  %29 = load double, ptr %28, align 8, !tbaa !53
  %30 = fadd double %29, 1.000000e+00
  %31 = fdiv double %26, %30
  %32 = load ptr, ptr %3, align 8, !tbaa !41
  %33 = getelementptr inbounds nuw %"struct.(anonymous namespace)::pj_gn_sinu_data", ptr %32, i32 0, i32 3
  store double %31, ptr %33, align 8, !tbaa !63
  call void @llvm.lifetime.end.p0(i64 8, ptr %3) #8
  ret void
}

; Function Attrs: mustprogress uwtable
define hidden noundef ptr @_Z36pj_projection_specific_setup_gn_sinuP8PJconsts(ptr noundef %0) #0 {
  %2 = alloca ptr, align 8
  %3 = alloca ptr, align 8
  %4 = alloca ptr, align 8
  %5 = alloca i32, align 4
  %6 = alloca %union.PROJVALUE, align 8
  %7 = alloca %union.PROJVALUE, align 8
  %8 = alloca %union.PROJVALUE, align 8
  %9 = alloca %union.PROJVALUE, align 8
  store ptr %0, ptr %3, align 8, !tbaa !3
  call void @llvm.lifetime.start.p0(i64 8, ptr %4) #8
  %10 = call noalias ptr @calloc(i64 noundef 1, i64 noundef 40) #9
  store ptr %10, ptr %4, align 8, !tbaa !41
  %11 = load ptr, ptr %4, align 8, !tbaa !41
  %12 = icmp eq ptr null, %11
  br i1 %12, label %13, label %16

13:                                               ; preds = %1
  %14 = load ptr, ptr %3, align 8, !tbaa !3
  %15 = call noundef ptr @_Z21pj_default_destructorP8PJconstsi(ptr noundef %14, i32 noundef 4096)
  store ptr %15, ptr %2, align 8
  store i32 1, ptr %5, align 4
  br label %96

16:                                               ; preds = %1
  %17 = load ptr, ptr %4, align 8, !tbaa !41
  %18 = load ptr, ptr %3, align 8, !tbaa !3
  %19 = getelementptr inbounds nuw %struct.PJconsts, ptr %18, i32 0, i32 11
  store ptr %17, ptr %19, align 8, !tbaa !43
  %20 = load ptr, ptr %3, align 8, !tbaa !3
  %21 = getelementptr inbounds nuw %struct.PJconsts, ptr %20, i32 0, i32 19
  store ptr @_ZL21pj_gn_sinu_destructorP8PJconstsi, ptr %21, align 8, !tbaa !44
  call void @llvm.lifetime.start.p0(i64 8, ptr %6) #8
  %22 = load ptr, ptr %3, align 8, !tbaa !3
  %23 = getelementptr inbounds nuw %struct.PJconsts, ptr %22, i32 0, i32 0
  %24 = load ptr, ptr %23, align 8, !tbaa !64
  %25 = load ptr, ptr %3, align 8, !tbaa !3
  %26 = getelementptr inbounds nuw %struct.PJconsts, ptr %25, i32 0, i32 3
  %27 = load ptr, ptr %26, align 8, !tbaa !65
  %28 = call i64 @_Z8pj_paramP6pj_ctxP8ARG_listPKc(ptr noundef %24, ptr noundef %27, ptr noundef @.str.4)
  %29 = getelementptr inbounds nuw %union.PROJVALUE, ptr %6, i32 0, i32 0
  store i64 %28, ptr %29, align 8
  %30 = load i32, ptr %6, align 8, !tbaa !66
  %31 = icmp ne i32 %30, 0
  %32 = xor i1 %31, true
  call void @llvm.lifetime.end.p0(i64 8, ptr %6) #8
  br i1 %32, label %33, label %37

33:                                               ; preds = %16
  %34 = load ptr, ptr %3, align 8, !tbaa !3
  call void (ptr, ptr, ...) @_Z14proj_log_errorPK8PJconstsPKcz(ptr noundef %34, ptr noundef @.str.5)
  %35 = load ptr, ptr %3, align 8, !tbaa !3
  %36 = call noundef ptr @_Z21pj_default_destructorP8PJconstsi(ptr noundef %35, i32 noundef 1026)
  store ptr %36, ptr %2, align 8
  store i32 1, ptr %5, align 4
  br label %96

37:                                               ; preds = %16
  call void @llvm.lifetime.start.p0(i64 8, ptr %7) #8
  %38 = load ptr, ptr %3, align 8, !tbaa !3
  %39 = getelementptr inbounds nuw %struct.PJconsts, ptr %38, i32 0, i32 0
  %40 = load ptr, ptr %39, align 8, !tbaa !64
  %41 = load ptr, ptr %3, align 8, !tbaa !3
  %42 = getelementptr inbounds nuw %struct.PJconsts, ptr %41, i32 0, i32 3
  %43 = load ptr, ptr %42, align 8, !tbaa !65
  %44 = call i64 @_Z8pj_paramP6pj_ctxP8ARG_listPKc(ptr noundef %40, ptr noundef %43, ptr noundef @.str.6)
  %45 = getelementptr inbounds nuw %union.PROJVALUE, ptr %7, i32 0, i32 0
  store i64 %44, ptr %45, align 8
  %46 = load i32, ptr %7, align 8, !tbaa !66
  %47 = icmp ne i32 %46, 0
  %48 = xor i1 %47, true
  call void @llvm.lifetime.end.p0(i64 8, ptr %7) #8
  br i1 %48, label %49, label %53

49:                                               ; preds = %37
  %50 = load ptr, ptr %3, align 8, !tbaa !3
  call void (ptr, ptr, ...) @_Z14proj_log_errorPK8PJconstsPKcz(ptr noundef %50, ptr noundef @.str.7)
  %51 = load ptr, ptr %3, align 8, !tbaa !3
  %52 = call noundef ptr @_Z21pj_default_destructorP8PJconstsi(ptr noundef %51, i32 noundef 1026)
  store ptr %52, ptr %2, align 8
  store i32 1, ptr %5, align 4
  br label %96

53:                                               ; preds = %37
  call void @llvm.lifetime.start.p0(i64 8, ptr %8) #8
  %54 = load ptr, ptr %3, align 8, !tbaa !3
  %55 = getelementptr inbounds nuw %struct.PJconsts, ptr %54, i32 0, i32 0
  %56 = load ptr, ptr %55, align 8, !tbaa !64
  %57 = load ptr, ptr %3, align 8, !tbaa !3
  %58 = getelementptr inbounds nuw %struct.PJconsts, ptr %57, i32 0, i32 3
  %59 = load ptr, ptr %58, align 8, !tbaa !65
  %60 = call i64 @_Z8pj_paramP6pj_ctxP8ARG_listPKc(ptr noundef %56, ptr noundef %59, ptr noundef @.str.8)
  %61 = getelementptr inbounds nuw %union.PROJVALUE, ptr %8, i32 0, i32 0
  store i64 %60, ptr %61, align 8
  %62 = load double, ptr %8, align 8, !tbaa !66
  %63 = load ptr, ptr %4, align 8, !tbaa !41
  %64 = getelementptr inbounds nuw %"struct.(anonymous namespace)::pj_gn_sinu_data", ptr %63, i32 0, i32 2
  store double %62, ptr %64, align 8, !tbaa !52
  call void @llvm.lifetime.end.p0(i64 8, ptr %8) #8
  call void @llvm.lifetime.start.p0(i64 8, ptr %9) #8
  %65 = load ptr, ptr %3, align 8, !tbaa !3
  %66 = getelementptr inbounds nuw %struct.PJconsts, ptr %65, i32 0, i32 0
  %67 = load ptr, ptr %66, align 8, !tbaa !64
  %68 = load ptr, ptr %3, align 8, !tbaa !3
  %69 = getelementptr inbounds nuw %struct.PJconsts, ptr %68, i32 0, i32 3
  %70 = load ptr, ptr %69, align 8, !tbaa !65
  %71 = call i64 @_Z8pj_paramP6pj_ctxP8ARG_listPKc(ptr noundef %67, ptr noundef %70, ptr noundef @.str.9)
  %72 = getelementptr inbounds nuw %union.PROJVALUE, ptr %9, i32 0, i32 0
  store i64 %71, ptr %72, align 8
  %73 = load double, ptr %9, align 8, !tbaa !66
  %74 = load ptr, ptr %4, align 8, !tbaa !41
  %75 = getelementptr inbounds nuw %"struct.(anonymous namespace)::pj_gn_sinu_data", ptr %74, i32 0, i32 1
  store double %73, ptr %75, align 8, !tbaa !53
  call void @llvm.lifetime.end.p0(i64 8, ptr %9) #8
  %76 = load ptr, ptr %4, align 8, !tbaa !41
  %77 = getelementptr inbounds nuw %"struct.(anonymous namespace)::pj_gn_sinu_data", ptr %76, i32 0, i32 2
  %78 = load double, ptr %77, align 8, !tbaa !52
  %79 = fcmp ole double %78, 0.000000e+00
  br i1 %79, label %80, label %84

80:                                               ; preds = %53
  %81 = load ptr, ptr %3, align 8, !tbaa !3
  call void (ptr, ptr, ...) @_Z14proj_log_errorPK8PJconstsPKcz(ptr noundef %81, ptr noundef @.str.10)
  %82 = load ptr, ptr %3, align 8, !tbaa !3
  %83 = call noundef ptr @_Z21pj_default_destructorP8PJconstsi(ptr noundef %82, i32 noundef 1027)
  store ptr %83, ptr %2, align 8
  store i32 1, ptr %5, align 4
  br label %96

84:                                               ; preds = %53
  %85 = load ptr, ptr %4, align 8, !tbaa !41
  %86 = getelementptr inbounds nuw %"struct.(anonymous namespace)::pj_gn_sinu_data", ptr %85, i32 0, i32 1
  %87 = load double, ptr %86, align 8, !tbaa !53
  %88 = fcmp olt double %87, 0.000000e+00
  br i1 %88, label %89, label %93

89:                                               ; preds = %84
  %90 = load ptr, ptr %3, align 8, !tbaa !3
  call void (ptr, ptr, ...) @_Z14proj_log_errorPK8PJconstsPKcz(ptr noundef %90, ptr noundef @.str.11)
  %91 = load ptr, ptr %3, align 8, !tbaa !3
  %92 = call noundef ptr @_Z21pj_default_destructorP8PJconstsi(ptr noundef %91, i32 noundef 1027)
  store ptr %92, ptr %2, align 8
  store i32 1, ptr %5, align 4
  br label %96

93:                                               ; preds = %84
  %94 = load ptr, ptr %3, align 8, !tbaa !3
  call void @_ZL16pj_gn_sinu_setupP8PJconsts(ptr noundef %94)
  %95 = load ptr, ptr %3, align 8, !tbaa !3
  store ptr %95, ptr %2, align 8
  store i32 1, ptr %5, align 4
  br label %96

96:                                               ; preds = %93, %89, %80, %49, %33, %13
  call void @llvm.lifetime.end.p0(i64 8, ptr %4) #8
  %97 = load ptr, ptr %2, align 8
  ret ptr %97
}