; Function Attrs: mustprogress uwtable
define hidden noundef ptr @_Z36pj_projection_specific_setup_gn_sinuP8PJconsts(ptr noundef %0) local_unnamed_addr #0 {
  %2 = tail call noalias dereferenceable_or_null(40) ptr @calloc(i64 noundef 1, i64 noundef 40) #6
  %3 = icmp eq ptr %2, null
  br i1 %3, label %4, label %6

4:                                                ; preds = %1
  %5 = tail call noundef ptr @_Z21pj_default_destructorP8PJconstsi(ptr noundef %0, i32 noundef 4096)
  br label %56

6:                                                ; preds = %1
  %7 = getelementptr inbounds nuw i8, ptr %0, i64 88
  store ptr %2, ptr %7, align 8, !tbaa !40
  %8 = getelementptr inbounds nuw i8, ptr %0, i64 152
  store ptr @_ZL21pj_gn_sinu_destructorP8PJconstsi, ptr %8, align 8, !tbaa !41
  %9 = load ptr, ptr %0, align 8, !tbaa !54
  %10 = getelementptr inbounds nuw i8, ptr %0, i64 24
  %11 = load ptr, ptr %10, align 8, !tbaa !55
  %12 = tail call i64 @_Z8pj_paramP6pj_ctxP8ARG_listPKc(ptr noundef %9, ptr noundef %11, ptr noundef nonnull @.str.4)
  %13 = and i64 %12, 4294967295
  %.not = icmp eq i64 %13, 0
  br i1 %.not, label %14, label %16

14:                                               ; preds = %6
  tail call void (ptr, ptr, ...) @_Z14proj_log_errorPK8PJconstsPKcz(ptr noundef nonnull %0, ptr noundef nonnull @.str.5)
  %15 = tail call noundef ptr @_Z21pj_default_destructorP8PJconstsi(ptr noundef nonnull %0, i32 noundef 1026)
  br label %56

16:                                               ; preds = %6
  %17 = load ptr, ptr %0, align 8, !tbaa !54
  %18 = load ptr, ptr %10, align 8, !tbaa !55
  %19 = tail call i64 @_Z8pj_paramP6pj_ctxP8ARG_listPKc(ptr noundef %17, ptr noundef %18, ptr noundef nonnull @.str.6)
  %20 = and i64 %19, 4294967295
  %.not33 = icmp eq i64 %20, 0
  br i1 %.not33, label %21, label %23

21:                                               ; preds = %16
  tail call void (ptr, ptr, ...) @_Z14proj_log_errorPK8PJconstsPKcz(ptr noundef nonnull %0, ptr noundef nonnull @.str.7)
  %22 = tail call noundef ptr @_Z21pj_default_destructorP8PJconstsi(ptr noundef nonnull %0, i32 noundef 1026)
  br label %56

23:                                               ; preds = %16
  %24 = load ptr, ptr %0, align 8, !tbaa !54
  %25 = load ptr, ptr %10, align 8, !tbaa !55
  %26 = tail call i64 @_Z8pj_paramP6pj_ctxP8ARG_listPKc(ptr noundef %24, ptr noundef %25, ptr noundef nonnull @.str.8)
  %27 = getelementptr inbounds nuw i8, ptr %2, i64 16
  store i64 %26, ptr %27, align 8, !tbaa !49
  %28 = load ptr, ptr %0, align 8, !tbaa !54
  %29 = load ptr, ptr %10, align 8, !tbaa !55
  %30 = tail call i64 @_Z8pj_paramP6pj_ctxP8ARG_listPKc(ptr noundef %28, ptr noundef %29, ptr noundef nonnull @.str.9)
  %31 = getelementptr inbounds nuw i8, ptr %2, i64 8
  store i64 %30, ptr %31, align 8, !tbaa !50
  %32 = load double, ptr %27, align 8, !tbaa !49
  %33 = fcmp ugt double %32, 0.000000e+00
  br i1 %33, label %36, label %34

34:                                               ; preds = %23
  tail call void (ptr, ptr, ...) @_Z14proj_log_errorPK8PJconstsPKcz(ptr noundef nonnull %0, ptr noundef nonnull @.str.10)
  %35 = tail call noundef ptr @_Z21pj_default_destructorP8PJconstsi(ptr noundef nonnull %0, i32 noundef 1027)
  br label %56

36:                                               ; preds = %23
  %37 = bitcast i64 %30 to double
  %38 = fcmp olt double %37, 0.000000e+00
  br i1 %38, label %39, label %41

39:                                               ; preds = %36
  tail call void (ptr, ptr, ...) @_Z14proj_log_errorPK8PJconstsPKcz(ptr noundef nonnull %0, ptr noundef nonnull @.str.11)
  %40 = tail call noundef ptr @_Z21pj_default_destructorP8PJconstsi(ptr noundef nonnull %0, i32 noundef 1027)
  br label %56

41:                                               ; preds = %36
  %42 = load ptr, ptr %7, align 8, !tbaa !40
  %43 = getelementptr inbounds nuw i8, ptr %0, i64 216
  store double 0.000000e+00, ptr %43, align 8, !tbaa !46
  %44 = getelementptr inbounds nuw i8, ptr %0, i64 112
  store ptr @_ZL17gn_sinu_s_inverse5PJ_XYP8PJconsts, ptr %44, align 8, !tbaa !47
  %45 = getelementptr inbounds nuw i8, ptr %0, i64 104
  store ptr @_ZL17gn_sinu_s_forward5PJ_LPP8PJconsts, ptr %45, align 8, !tbaa !48
  %46 = getelementptr inbounds nuw i8, ptr %42, i64 8
  %47 = load double, ptr %46, align 8, !tbaa !50
  %48 = fadd double %47, 1.000000e+00
  %49 = getelementptr inbounds nuw i8, ptr %42, i64 16
  %50 = load double, ptr %49, align 8, !tbaa !49
  %51 = fdiv double %48, %50
  %52 = tail call double @sqrt(double noundef %51) #7, !tbaa !51
  %53 = getelementptr inbounds nuw i8, ptr %42, i64 32
  store double %52, ptr %53, align 8, !tbaa !52
  %54 = fdiv double %52, %48
  %55 = getelementptr inbounds nuw i8, ptr %42, i64 24
  store double %54, ptr %55, align 8, !tbaa !53
  br label %56

56:                                               ; preds = %41, %39, %34, %21, %14, %4
  %.0 = phi ptr [ %5, %4 ], [ %15, %14 ], [ %22, %21 ], [ %35, %34 ], [ %40, %39 ], [ %0, %41 ]
  ret ptr %.0
}